; ModuleID = '29/493.c'
source_filename = "29/493.c"
target datalayout = "e-m:e-p270:32:32-p271:32:32-p272:64:64-i64:64-f80:128-n8:16:32:64-S128"
target triple = "x86_64-pc-linux-gnu"

@.str = private unnamed_addr constant [3 x i8] c"%d\00", align 1
@.str.1 = private unnamed_addr constant [7 x i8] c"%.3lf\0A\00", align 1

; Function Attrs: noinline nounwind uwtable
define dso_local i32 @main() #0 {
  %1 = alloca i32, align 4
  %2 = alloca [10000 x i32], align 16
  %3 = alloca [10000 x double], align 16
  %4 = alloca double, align 8
  %5 = alloca i32, align 4
  %6 = alloca i32, align 4
  %7 = alloca i32, align 4
  %8 = alloca i32, align 4
  store i32 0, i32* %1, align 4
  %9 = call i32 (i8*, ...) @__isoc99_scanf(i8* getelementptr inbounds ([3 x i8], [3 x i8]* @.str, i64 0, i64 0), i32* %5)
  store i32 0, i32* %8, align 4
  br label %10

10:                                               ; preds = %75, %0
  %11 = load i32, i32* %8, align 4
  %12 = load i32, i32* %5, align 4
  %13 = icmp slt i32 %11, %12
  br i1 %13, label %14, label %78

14:                                               ; preds = %10
  %15 = call i32 (i8*, ...) @__isoc99_scanf(i8* getelementptr inbounds ([3 x i8], [3 x i8]* @.str, i64 0, i64 0), i32* %6)
  %16 = getelementptr inbounds [10000 x i32], [10000 x i32]* %2, i64 0, i64 0
  store i32 1, i32* %16, align 16
  %17 = getelementptr inbounds [10000 x i32], [10000 x i32]* %2, i64 0, i64 1
  store i32 1, i32* %17, align 4
  store i32 2, i32* %7, align 4
  br label %18

18:                                               ; preds = %38, %14
  %19 = load i32, i32* %7, align 4
  %20 = load i32, i32* %6, align 4
  %21 = add nsw i32 %20, 2
  %22 = icmp slt i32 %19, %21
  br i1 %22, label %23, label %41

23:                                               ; preds = %18
  %24 = load i32, i32* %7, align 4
  %25 = sub nsw i32 %24, 1
  %26 = sext i32 %25 to i64
  %27 = getelementptr inbounds [10000 x i32], [10000 x i32]* %2, i64 0, i64 %26
  %28 = load i32, i32* %27, align 4
  %29 = load i32, i32* %7, align 4
  %30 = sub nsw i32 %29, 2
  %31 = sext i32 %30 to i64
  %32 = getelementptr inbounds [10000 x i32], [10000 x i32]* %2, i64 0, i64 %31
  %33 = load i32, i32* %32, align 4
  %34 = add nsw i32 %28, %33
  %35 = load i32, i32* %7, align 4
  %36 = sext i32 %35 to i64
  %37 = getelementptr inbounds [10000 x i32], [10000 x i32]* %2, i64 0, i64 %36
  store i32 %34, i32* %37, align 4
  br label %38

38:                                               ; preds = %23
  %39 = load i32, i32* %7, align 4
  %40 = add nsw i32 %39, 1
  store i32 %40, i32* %7, align 4
  br label %18

41:                                               ; preds = %18
  store double 0.000000e+00, double* %4, align 8
  store i32 0, i32* %7, align 4
  br label %42

42:                                               ; preds = %69, %41
  %43 = load i32, i32* %7, align 4
  %44 = load i32, i32* %6, align 4
  %45 = icmp slt i32 %43, %44
  br i1 %45, label %46, label %72

46:                                               ; preds = %42
  %47 = load i32, i32* %7, align 4
  %48 = add nsw i32 %47, 2
  %49 = sext i32 %48 to i64
  %50 = getelementptr inbounds [10000 x i32], [10000 x i32]* %2, i64 0, i64 %49
  %51 = load i32, i32* %50, align 4
  %52 = sitofp i32 %51 to double
  %53 = load i32, i32* %7, align 4
  %54 = add nsw i32 %53, 1
  %55 = sext i32 %54 to i64
  %56 = getelementptr inbounds [10000 x i32], [10000 x i32]* %2, i64 0, i64 %55
  %57 = load i32, i32* %56, align 4
  %58 = sitofp i32 %57 to double
  %59 = fdiv double %52, %58
  %60 = load i32, i32* %7, align 4
  %61 = sext i32 %60 to i64
  %62 = getelementptr inbounds [10000 x double], [10000 x double]* %3, i64 0, i64 %61
  store double %59, double* %62, align 8
  %63 = load double, double* %4, align 8
  %64 = load i32, i32* %7, align 4
  %65 = sext i32 %64 to i64
  %66 = getelementptr inbounds [10000 x double], [10000 x double]* %3, i64 0, i64 %65
  %67 = load double, double* %66, align 8
  %68 = fadd double %63, %67
  store double %68, double* %4, align 8
  br label %69

69:                                               ; preds = %46
  %70 = load i32, i32* %7, align 4
  %71 = add nsw i32 %70, 1
  store i32 %71, i32* %7, align 4
  br label %42

72:                                               ; preds = %42
  %73 = load double, double* %4, align 8
  %74 = call i32 (i8*, ...) @printf(i8* getelementptr inbounds ([7 x i8], [7 x i8]* @.str.1, i64 0, i64 0), double %73)
  br label %75

75:                                               ; preds = %72
  %76 = load i32, i32* %8, align 4
  %77 = add nsw i32 %76, 1
  store i32 %77, i32* %8, align 4
  br label %10

78:                                               ; preds = %10
  ret i32 0
}

declare dso_local i32 @__isoc99_scanf(i8*, ...) #1

declare dso_local i32 @printf(i8*, ...) #1


!llvm.module.flags = !{!0}
!llvm.ident = !{!1}

!0 = !{i32 1, !"wchar_size", i32 4}
!1 = !{!"clang version 10.0.0-4ubuntu1 "}
